EXPORTS 
	??_R0?AVbad_alloc@std@@@8 	 DATA
	??_R0?AVbad_array_new_length@std@@@8 	 DATA
	??_R0?AVexception@std@@@8 	 DATA
	??$?0$$V@?$_Compressed_pair@V?$allocator@K@std@@V?$_Vector_val@U?$_Simple_types@K@std@@@2@$00@std@@QEAA@U_Zero_then_variadic_args_t@1@@Z
	??$?0K@?$allocator@U_Container_proxy@std@@@std@@QEAA@AEBV?$allocator@K@1@@Z
	??$_Alloc_proxy@V?$allocator@U_Container_proxy@std@@@std@@@_Container_base12@std@@QEAAX$$QEAV?$allocator@U_Container_proxy@std@@@1@@Z
	??$_Allocate@$0BA@U_Default_allocate_traits@std@@@std@@YAPEAX_K@Z
	??$_Allocate_at_least_helper@V?$allocator@K@std@@@std@@YAPEAKAEAV?$allocator@K@0@AEA_K@Z
	??$_Allocate_manually_vector_aligned@U_Default_allocate_traits@std@@@std@@YAPEAX_K@Z
	??$_Construct_in_place@KAEBK@std@@YAXAEAKAEBK@Z
	??$_Construct_in_place@U_Container_proxy@std@@PEAU_Container_base12@2@@std@@YAXAEAU_Container_proxy@0@$$QEAPEAU_Container_base12@0@@Z
	??$_Copy_memmove@PEAKPEAK@std@@YAPEAKPEAK00@Z
	??$_Deallocate@$0BA@@std@@YAXPEAX_K@Z
	??$_Deallocate_plain@V?$allocator@U_Container_proxy@std@@@std@@@std@@YAXAEAV?$allocator@U_Container_proxy@std@@@0@QEAU_Container_proxy@0@@Z
	??$_Delete_plain_internal@V?$allocator@U_Container_proxy@std@@@std@@@std@@YAXAEAV?$allocator@U_Container_proxy@std@@@0@QEAU_Container_proxy@0@@Z
	??$_Destroy_range@V?$allocator@K@std@@@std@@YAXPEAKQEAKAEAV?$allocator@K@0@@Z
	??$_Emplace_back@K@?$_Uninitialized_backout_al@V?$allocator@K@std@@@std@@QEAAX$$QEAK@Z
	??$_Emplace_back_with_unused_capacity@AEBK@?$vector@KV?$allocator@K@std@@@std@@AEAAAEAKAEBK@Z
	??$_Emplace_one_at_back@AEBK@?$vector@KV?$allocator@K@std@@@std@@AEAAAEAKAEBK@Z
	??$_Emplace_reallocate@AEBK@?$vector@KV?$allocator@K@std@@@std@@AEAAPEAKQEAKAEBK@Z
	??$_Get_size_of_n@$03@std@@YA_K_K@Z
	??$_Get_size_of_n@$0BA@@std@@YA_K_K@Z
	??$_Get_unwrapped@AEBQEAK@std@@YA?A_TAEBQEAK@Z
	??$_Max_limit@_J@std@@YA_JXZ
	??$_To_address@PEAK@std@@YA?A_PAEBQEAK@Z
	??$_Unfancy@K@std@@YAPEAKPEAK@Z
	??$_Unfancy@U_Container_proxy@std@@@std@@YAPEAU_Container_proxy@0@PEAU10@@Z
	??$_Unfancy_maybe_null@K@std@@YAPEAKPEAK@Z
	??$_Uninitialized_move@PEAKV?$allocator@K@std@@@std@@YAPEAKQEAK0PEAKAEAV?$allocator@K@0@@Z
	??$addressof@K@std@@YAPEAKAEAK@Z
	??$addressof@U_Container_proxy@std@@@std@@YAPEAU_Container_proxy@0@AEAU10@@Z
	??$construct@KAEBK@?$_Default_allocator_traits@V?$allocator@K@std@@@std@@SAXAEAV?$allocator@K@1@QEAKAEBK@Z
	??$construct@KK@?$_Default_allocator_traits@V?$allocator@K@std@@@std@@SAXAEAV?$allocator@K@1@QEAK$$QEAK@Z
	??$exchange@PEAU_Container_proxy@std@@$$T@std@@YAPEAU_Container_proxy@0@AEAPEAU10@$$QEA$$T@Z
	??$exchange@PEAU_Iterator_base12@std@@$$T@std@@YAPEAU_Iterator_base12@0@AEAPEAU10@$$QEA$$T@Z
	??$forward@AEBK@std@@YAAEBKAEBK@Z
	??$forward@K@std@@YA$$QEAKAEAK@Z
	??$forward@PEAU_Container_base12@std@@@std@@YA$$QEAPEAU_Container_base12@0@AEAPEAU10@@Z
	??$min@_K@std@@YAAEB_KAEB_K0@Z
	??$move@AEAK@std@@YA$$QEAKAEAK@Z
	??0?$_Uninitialized_backout_al@V?$allocator@K@std@@@std@@QEAA@PEAKAEAV?$allocator@K@1@@Z
	??0?$_Vector_val@U?$_Simple_types@K@std@@@std@@QEAA@XZ
	??0?$allocator@K@std@@QEAA@XZ
	??0?$vector@KV?$allocator@K@std@@@std@@QEAA@XZ
	??0_Container_base12@std@@QEAA@XZ
	??0_Container_proxy@std@@QEAA@PEAU_Container_base12@1@@Z
	??0bad_alloc@std@@AEAA@QEBD@Z
	??0bad_alloc@std@@QEAA@AEBV01@@Z
	??0bad_array_new_length@std@@QEAA@AEBV01@@Z
	??0bad_array_new_length@std@@QEAA@XZ
	??0exception@std@@QEAA@AEBV01@@Z
	??0exception@std@@QEAA@QEBDH@Z
	??1?$_Uninitialized_backout_al@V?$allocator@K@std@@@std@@QEAA@XZ
	??1?$vector@KV?$allocator@K@std@@@std@@QEAA@XZ
	??1bad_alloc@std@@UEAA@XZ
	??1bad_array_new_length@std@@UEAA@XZ
	??1exception@std@@UEAA@XZ
	??2@YAPEAX_KPEAX@Z
	??_7bad_alloc@std@@6B@
	??_7bad_array_new_length@std@@6B@
	??_7exception@std@@6B@
	?Cleanup@Protection@@YAXXZ
	?HookMemoryAllocation@Protection@@YA_NXZ
	?Initialize@Protection@@YA_NXZ
	?MonitorHandleCreation@Protection@@YA_NXZ
	?PreventRemoteThreads@Protection@@YA_NXZ
	?StripHandles@Protection@@YA_NXZ
	?StripProcessHandles@Protection@@YA_NXZ
	?_Adjust_manually_vector_aligned@std@@YAXAEAPEAXAEA_K@Z
	?_Allocate@_Default_allocate_traits@std@@SAPEAX_K@Z
	?_Calculate_growth@?$vector@KV?$allocator@K@std@@@std@@AEBA_K_K@Z
	?_Change_array@?$vector@KV?$allocator@K@std@@@std@@AEAAXQEAK_K1@Z
	?_Get_first@?$_Compressed_pair@V?$allocator@K@std@@V?$_Vector_val@U?$_Simple_types@K@std@@@2@$00@std@@QEAAAEAV?$allocator@K@2@XZ
	?_Get_first@?$_Compressed_pair@V?$allocator@K@std@@V?$_Vector_val@U?$_Simple_types@K@std@@@2@$00@std@@QEBAAEBV?$allocator@K@2@XZ
	?_Getal@?$vector@KV?$allocator@K@std@@@std@@AEAAAEAV?$allocator@K@2@XZ
	?_Getal@?$vector@KV?$allocator@K@std@@@std@@AEBAAEBV?$allocator@K@2@XZ
	?_Orphan_all@_Container_base12@std@@QEAAXXZ
	?_Orphan_all_locked_v3@_Container_base12@std@@AEAAXXZ
	?_Orphan_all_unlocked_v3@_Container_base12@std@@AEAAXXZ
	?_Orphan_range@?$vector@KV?$allocator@K@std@@@std@@AEBAXPEAK0@Z
	?_Orphan_range_locked@?$vector@KV?$allocator@K@std@@@std@@AEBAXPEAK0@Z
	?_Orphan_range_unlocked@?$vector@KV?$allocator@K@std@@@std@@AEBAXPEAK0@Z
	?_Release@?$_Uninitialized_backout_al@V?$allocator@K@std@@@std@@QEAAPEAKXZ
	?_Throw_bad_array_new_length@std@@YAXXZ
	?_Tidy@?$vector@KV?$allocator@K@std@@@std@@AEAAXXZ
	?_Unchecked_begin@?$vector@KV?$allocator@K@std@@@std@@QEAAPEAKXZ
	?_Unchecked_end@?$vector@KV?$allocator@K@std@@@std@@QEAAPEAKXZ
	?_Xlength@?$vector@KV?$allocator@K@std@@@std@@CAXXZ
	?allocate@?$allocator@K@std@@QEAAPEAK_K@Z
	?allocate@?$allocator@U_Container_proxy@std@@@std@@QEAAPEAU_Container_proxy@2@_K@Z
	?capacity@?$vector@KV?$allocator@K@std@@@std@@QEBA_KXZ
	?deallocate@?$_Default_allocator_traits@V?$allocator@U_Container_proxy@std@@@std@@@std@@SAXAEAV?$allocator@U_Container_proxy@std@@@2@QEAU_Container_proxy@2@_K@Z
	?deallocate@?$allocator@K@std@@QEAAXQEAK_K@Z
	?max_size@?$_Default_allocator_traits@V?$allocator@K@std@@@std@@SA_KAEBV?$allocator@K@2@@Z
	?max_size@?$vector@KV?$allocator@K@std@@@std@@QEBA_KXZ
	?push_back@?$vector@KV?$allocator@K@std@@@std@@QEAAXAEBK@Z
	?what@exception@std@@UEBAPEBDXZ
	DllMain
